; Function Attrs: nounwind uwtable
define ptr @l_Lean_Elab_nestedExceptionToMessageData___at___private_Lean_Elab_Open_0__Lean_Elab_OpenDecl_resolveNameUsingNamespacesCore___spec__5___rarg(ptr noundef %0, ptr noundef %1, ptr noundef %2, ptr readnone captures(none) %3) local_unnamed_addr #0 {
  %5 = getelementptr inbounds nuw i8, ptr %0, i64 16
  %6 = load ptr, ptr %5, align 8, !tbaa !4
  %7 = ptrtoint ptr %6 to i64
  %8 = and i64 %7, 1
  %.not = icmp eq i64 %8, 0
  br i1 %.not, label %9, label %lean_inc.exit22

9:                                                ; preds = %4
  %.val.i = load i32, ptr %6, align 4, !tbaa !8
  %10 = icmp sgt i32 %.val.i, 0
  br i1 %10, label %11, label %13, !prof !11

11:                                               ; preds = %9
  %12 = add nuw i32 %.val.i, 1
  store i32 %12, ptr %6, align 4, !tbaa !8
  br label %lean_inc.exit22

13:                                               ; preds = %9
  %.not.i = icmp eq i32 %.val.i, 0
  br i1 %.not.i, label %lean_inc.exit22, label %14

14:                                               ; preds = %13
  tail call void @lean_inc_ref_cold(ptr noundef nonnull %6) #6
  br label %lean_inc.exit22

lean_inc.exit22:                                  ; preds = %14, %13, %11, %4
  %15 = ptrtoint ptr %1 to i64
  %16 = and i64 %15, 1
  %.not32 = icmp eq i64 %16, 0
  br i1 %.not32, label %17, label %lean_inc.exit21

17:                                               ; preds = %lean_inc.exit22
  %.val.i23 = load i32, ptr %1, align 4, !tbaa !8
  %18 = icmp sgt i32 %.val.i23, 0
  br i1 %18, label %19, label %21, !prof !11

19:                                               ; preds = %17
  %20 = add nuw i32 %.val.i23, 1
  store i32 %20, ptr %1, align 4, !tbaa !8
  br label %lean_inc.exit21

21:                                               ; preds = %17
  %.not.i24 = icmp eq i32 %.val.i23, 0
  br i1 %.not.i24, label %lean_inc.exit21, label %22

22:                                               ; preds = %21
  tail call void @lean_inc_ref_cold(ptr noundef nonnull %1) #6
  br label %lean_inc.exit21

lean_inc.exit21:                                  ; preds = %22, %21, %19, %lean_inc.exit22
  %23 = ptrtoint ptr %0 to i64
  %24 = and i64 %23, 1
  %.not33 = icmp eq i64 %24, 0
  br i1 %.not33, label %25, label %lean_inc.exit20

25:                                               ; preds = %lean_inc.exit21
  %.val.i26 = load i32, ptr %0, align 4, !tbaa !8
  %26 = icmp sgt i32 %.val.i26, 0
  br i1 %26, label %27, label %29, !prof !11

27:                                               ; preds = %25
  %28 = add nuw i32 %.val.i26, 1
  store i32 %28, ptr %0, align 4, !tbaa !8
  br label %lean_inc.exit20

29:                                               ; preds = %25
  %.not.i27 = icmp eq i32 %.val.i26, 0
  br i1 %.not.i27, label %lean_inc.exit20, label %30

30:                                               ; preds = %29
  tail call void @lean_inc_ref_cold(ptr noundef nonnull %0) #6
  br label %lean_inc.exit20

lean_inc.exit20:                                  ; preds = %30, %29, %27, %lean_inc.exit21
  %31 = tail call ptr @l_Lean_getRefPos___at___private_Lean_Elab_Open_0__Lean_Elab_OpenDecl_resolveNameUsingNamespacesCore___spec__6___rarg(ptr noundef nonnull %0, ptr noundef %1, ptr poison)
  br i1 %.not, label %32, label %lean_inc.exit

32:                                               ; preds = %lean_inc.exit20
  %.val.i29 = load i32, ptr %6, align 4, !tbaa !8
  %33 = icmp sgt i32 %.val.i29, 0
  br i1 %33, label %34, label %36, !prof !11

34:                                               ; preds = %32
  %35 = add nuw i32 %.val.i29, 1
  store i32 %35, ptr %6, align 4, !tbaa !8
  br label %lean_inc.exit

36:                                               ; preds = %32
  %.not.i30 = icmp eq i32 %.val.i29, 0
  br i1 %.not.i30, label %lean_inc.exit, label %37

37:                                               ; preds = %36
  tail call void @lean_inc_ref_cold(ptr noundef nonnull %6) #6
  br label %lean_inc.exit

lean_inc.exit:                                    ; preds = %37, %36, %34, %lean_inc.exit20
  tail call void @lean_inc_heartbeat() #6
  %38 = tail call noalias ptr @mi_malloc_small(i64 noundef 56) #6
  %39 = icmp eq ptr %38, null
  br i1 %39, label %40, label %lean_alloc_closure.exit

40:                                               ; preds = %lean_inc.exit
  tail call void @lean_internal_panic_out_of_memory() #7
  unreachable

lean_alloc_closure.exit:                          ; preds = %lean_inc.exit
  %41 = getelementptr inbounds nuw i8, ptr %38, i64 4
  store i32 1, ptr %38, align 4, !tbaa !8
  store i32 -184549320, ptr %41, align 4
  %42 = getelementptr inbounds nuw i8, ptr %38, i64 8
  store ptr @l_Lean_Elab_nestedExceptionToMessageData___at___private_Lean_Elab_Open_0__Lean_Elab_OpenDecl_resolveNameUsingNamespacesCore___spec__5___rarg___lambda__2___boxed, ptr %42, align 8, !tbaa !4
  %43 = getelementptr inbounds nuw i8, ptr %38, i64 16
  store i16 5, ptr %43, align 8, !tbaa !12
  %44 = getelementptr inbounds nuw i8, ptr %38, i64 18
  store i16 4, ptr %44, align 2, !tbaa !12
  %45 = getelementptr inbounds nuw i8, ptr %38, i64 24
  store ptr %2, ptr %45, align 8, !tbaa !4
  %46 = getelementptr inbounds nuw i8, ptr %38, i64 32
  store ptr %0, ptr %46, align 8, !tbaa !4
  %47 = getelementptr inbounds nuw i8, ptr %38, i64 40
  store ptr %1, ptr %47, align 8, !tbaa !4
  %48 = getelementptr inbounds nuw i8, ptr %38, i64 48
  store ptr %6, ptr %48, align 8, !tbaa !4
  %49 = tail call ptr @lean_apply_4(ptr noundef %6, ptr noundef nonnull inttoptr (i64 1 to ptr), ptr noundef nonnull inttoptr (i64 1 to ptr), ptr noundef %31, ptr noundef nonnull %38) #6
  ret ptr %49
}